; Function Attrs: nounwind sspstrong uwtable
define hidden void @rb_ractor_ensure_main_ractor(ptr noundef %0) local_unnamed_addr #0 {
  %2 = load ptr, ptr @ruby_single_main_ractor, align 8, !tbaa !39
  %.not.i = icmp eq ptr %2, null
  br i1 %.not.i, label %rb_ractor_main_p.exit, label %rb_ractor_main_p.exit.thread

rb_ractor_main_p.exit:                            ; preds = %1
  %3 = tail call align 8 ptr @llvm.threadlocal.address.p0(ptr align 8 @ruby_current_ec)
  %4 = load ptr, ptr %3, align 8, !tbaa !123
  %5 = getelementptr i8, ptr %4, i64 48
  %.val.i.i = load ptr, ptr %5, align 8, !tbaa !90, !nonnull !99, !noundef !99
  %6 = getelementptr inbounds nuw i8, ptr %.val.i.i, i64 24
  %7 = load ptr, ptr %6, align 8, !tbaa !57
  %8 = getelementptr inbounds nuw i8, ptr %.val.i.i, i64 32
  %9 = load ptr, ptr %8, align 8, !tbaa !79
  %10 = getelementptr inbounds nuw i8, ptr %9, i64 32
  %11 = load ptr, ptr %10, align 8, !tbaa !124
  %12 = icmp eq ptr %7, %11
  br i1 %12, label %rb_ractor_main_p.exit.thread, label %13

13:                                               ; preds = %rb_ractor_main_p.exit
  %14 = load i64, ptr @rb_eRactorIsolationError, align 8, !tbaa !80
  tail call void (i64, ptr, ...) @rb_raise(i64 noundef %14, ptr noundef nonnull @.str.33, ptr noundef %0) #27
  unreachable

rb_ractor_main_p.exit.thread:                     ; preds = %1, %rb_ractor_main_p.exit
  ret void
}